target datalayout = "e-m:e-p270:32:32-p271:32:32-p272:64:64-i64:64-i128:128-f80:128-n8:16:32:64-S128"
target triple = "x86_64-unknown-linux-gnu"

@.str.31 = private unnamed_addr constant [4 x i8] c"key\00", align 1
@.str.32 = private unnamed_addr constant [6 x i8] c"value\00", align 1

; Function Attrs: mustprogress nounwind uwtable
define noundef ptr @_ZNK8facebook5velox7MapType6nameOfEj(ptr noundef nonnull align 8 dereferenceable(80) %this, i32 noundef %idx) #2 align 2 {
entry:
  %retval = alloca ptr, align 8
  %this.addr = alloca ptr, align 8
  %idx.addr = alloca i32, align 4
  store ptr %this, ptr %this.addr, align 8
  store i32 %idx, ptr %idx.addr, align 4
  %0 = load i32, ptr %idx.addr, align 4
  %cmp = icmp eq i32 %0, 0
  br i1 %cmp, label %if.then, label %if.else

if.then:                                          ; preds = %entry
  store ptr @.str.31, ptr %retval, align 8
  br label %return

if.else:                                          ; preds = %entry
  %1 = load i32, ptr %idx.addr, align 4
  %cmp2 = icmp eq i32 %1, 1
  br i1 %cmp2, label %if.then3, label %if.end

if.then3:                                         ; preds = %if.else
  store ptr @.str.32, ptr %retval, align 8
  br label %return

if.end:                                           ; preds = %if.else
  br label %if.end4

if.end4:                                          ; preds = %if.end
  call void @llvm.trap()
  call void @llvm.trap()
  unreachable

return:                                           ; preds = %if.then3, %if.then
  %2 = load ptr, ptr %retval, align 8
  ret ptr %2
}