; Function Attrs: mustprogress nounwind memory(inaccessiblemem: write) uwtable
define noundef nonnull ptr @_ZNK8facebook5velox7MapType6nameOfEj(ptr nocapture noundef nonnull readnone align 8 dereferenceable(80) %this, i32 noundef %idx) local_unnamed_addr #7 align 2 {
entry:
  switch i32 %idx, label %if.end4 [
    i32 0, label %return
    i32 1, label %if.then3
  ]

if.then3:                                         ; preds = %entry
  br label %return

if.end4:                                          ; preds = %entry
  tail call void @llvm.trap()
  unreachable

return:                                           ; preds = %entry, %if.then3
  %retval.0 = phi ptr [ @.str.32, %if.then3 ], [ @.str.31, %entry ]
  ret ptr %retval.0
}